Certificate:
    Data:
        Version: 3 (0x2)
        Serial Number:
            37:12:13:53:9e:dd:f4:ab:59:4d:6d:c0:32:bb:69:ce:99:7d:cf:80
        Signature Algorithm: sha256WithRSAEncryption
        Issuer: C = CA, ST = Wonderland, L = Alice Home, OU = Test CA, O = valkey-tcl
        Validity
            Not Before: Aug 21 20:13:12 2024 GMT
            Not After : Dec 23 20:13:12 3023 GMT
        Subject: C = CA, ST = Wonderland, L = Alice Home, OU = Test CA, O = valkey-tcl
        Subject Public Key Info:
            Public Key Algorithm: rsaEncryption
                Public-Key: (4096 bit)
                Modulus:
                    00:87:33:ae:da:83:70:24:4a:91:10:c8:c8:8c:1d:
                    6a:05:73:d6:cb:8e:1c:4a:cc:34:b0:84:5a:3e:34:
                    c2:4b:0f:e3:e9:f6:4c:34:c8:e3:c0:9b:16:df:5a:
                    8e:8e:2d:3f:fe:8b:a0:c9:9c:d6:1b:a6:f2:2d:7b:
                    eb:ed:dc:bf:cb:5d:05:48:dc:58:2e:6b:0f:f9:46:
                    b0:94:95:f0:87:db:de:1c:17:a8:61:0f:16:86:e8:
                    e1:b2:71:15:8a:dd:b8:a2:2e:02:b2:97:2f:6b:f1:
                    6f:e9:c2:29:ce:3b:8b:76:2f:1c:35:12:fb:1f:ae:
                    8a:14:e4:44:db:5d:af:48:87:d0:9b:d3:f3:cf:81:
                    60:22:73:90:3e:3e:f0:8c:0b:b4:a7:69:b8:b3:36:
                    db:f2:9c:00:ce:b4:2a:c2:36:2f:44:ad:06:a7:54:
                    c8:31:95:4a:f0:e9:42:35:27:33:c0:dd:2c:27:f6:
                    9a:0f:4e:f4:e5:19:83:08:6f:96:52:ea:ba:37:eb:
                    cf:fe:81:95:a7:c9:fc:20:6f:78:e2:1e:dd:96:db:
                    84:1d:f0:df:80:a2:2d:fc:d3:fb:65:e3:9b:dd:a9:
                    dd:5c:97:f4:d5:61:0a:4f:c1:58:6c:34:6a:3b:e0:
                    f9:80:36:fc:81:01:54:53:f0:84:1a:5b:2e:82:ce:
                    0d:76:1c:cf:84:fd:d3:05:e5:59:42:28:ae:e0:a2:
                    d9:fb:9a:10:ee:fe:34:ef:da:a0:fd:66:78:3f:3e:
                    43:b0:ef:19:c5:08:55:8e:d8:ba:d8:d7:9f:96:25:
                    61:0f:01:7f:2d:96:d7:1a:c9:38:33:d0:e0:15:6f:
                    83:75:55:b2:3f:b2:5f:4d:42:f2:4e:aa:20:7d:3f:
                    b8:66:c6:79:14:80:63:9d:7f:ee:e6:02:85:3c:4c:
                    ce:b4:a5:e6:ee:c3:f0:d5:08:12:86:70:8e:63:d9:
                    98:e5:7c:b5:4e:bd:8d:bc:55:e0:96:bf:08:73:aa:
                    52:e7:2a:44:83:27:0a:06:68:c2:6a:7e:7a:1b:14:
                    51:36:ad:8b:bb:89:9a:0b:7f:41:c5:ca:1b:7c:37:
                    3e:58:30:42:2d:19:eb:92:c2:94:b1:62:e3:c5:8c:
                    6a:ce:ae:14:e1:13:28:f7:40:27:a2:a8:5f:dc:3b:
                    70:f0:e9:e2:f5:d5:e4:05:06:fd:66:da:97:08:03:
                    3e:d9:75:f1:9e:7e:24:70:1e:e5:85:37:82:51:19:
                    08:54:30:51:2c:da:16:ae:a0:85:58:06:7f:c6:c4:
                    06:43:b1:4d:e2:cb:29:a7:35:93:b9:38:d0:2d:3c:
                    02:d5:c8:31:e7:29:56:41:8b:6b:c1:f2:d9:28:1a:
                    76:e7:b9
                Exponent: 65537 (0x10001)
        X509v3 extensions:
            X509v3 Subject Key Identifier: 
                7A:CD:4B:86:45:3C:B0:64:3F:5E:44:5A:F3:46:DE:F2:0B:2B:83:02
            X509v3 Authority Key Identifier: 
                7A:CD:4B:86:45:3C:B0:64:3F:5E:44:5A:F3:46:DE:F2:0B:2B:83:02
            X509v3 Basic Constraints: critical
                CA:TRUE
    Signature Algorithm: sha256WithRSAEncryption
    Signature Value:
        38:c3:92:61:e3:a5:4f:ec:cd:85:b2:fe:a6:cb:e2:31:5e:d7:
        ec:74:3a:66:76:ee:af:97:09:18:4c:d3:48:b5:c4:25:c4:9f:
        76:bf:40:1e:7e:3e:93:07:d4:e3:c4:b3:d3:9c:43:3e:d6:ea:
        1d:66:38:e1:33:61:16:6f:98:dd:31:e6:53:38:9e:56:36:81:
        d2:50:12:71:fd:46:99:9a:36:1b:85:a4:b6:45:aa:c8:b4:e1:
        d2:69:89:f3:d2:61:00:9c:22:e7:4c:e3:b8:78:fd:e9:ca:85:
        6f:50:ee:81:19:a0:a9:9e:82:90:34:4a:ca:b2:62:34:3e:c3:
        3e:75:e4:c6:d1:6d:7c:6f:c2:e8:50:6b:ee:f0:76:e6:d4:f8:
        6c:af:49:e9:ec:61:4a:04:66:ed:ef:e3:81:6d:5e:95:d6:b5:
        1f:0a:14:53:61:dc:88:61:e5:56:8d:d2:ca:11:14:84:53:a8:
        5a:59:77:11:49:d0:4b:8d:c5:e5:3e:f4:32:e3:e6:a3:ca:22:
        40:11:79:80:c2:ea:aa:47:52:d9:37:d6:5e:d3:27:c1:7c:d2:
        ba:2a:b3:40:22:8d:d0:54:e1:5c:b5:13:66:56:a2:78:b2:42:
        a6:0b:91:4b:f5:df:3c:01:f1:b9:e2:7c:06:dc:43:5c:02:95:
        77:78:64:aa:40:53:89:a6:4e:8c:fa:68:87:bf:b5:ab:fd:90:
        a0:55:4c:37:af:e1:74:71:da:9e:2a:82:23:f6:38:ab:2b:84:
        44:8e:46:a2:75:31:f3:cd:24:19:ba:df:ec:79:14:a5:ad:db:
        5d:7f:bd:df:b9:d7:a1:d7:44:0c:2f:1f:eb:bb:29:26:ed:84:
        f5:a3:b8:3d:cc:01:10:7d:d1:71:46:d0:f6:7e:f8:23:27:82:
        3b:41:a6:79:fb:2c:10:08:1a:4e:49:7b:b0:c3:13:58:de:3b:
        14:21:fc:10:7a:9f:ff:be:8e:36:5b:1a:4c:07:62:57:17:82:
        4f:4c:52:b7:cd:17:67:1e:af:f0:01:0b:2f:10:58:e5:1a:53:
        ab:80:16:55:0c:5c:c0:3b:a0:be:fe:e3:3c:c2:b9:60:b8:73:
        e4:a5:b8:1a:a9:22:4a:53:d5:d2:78:00:1c:9c:d8:3b:88:9f:
        50:c2:d4:0b:8b:94:3f:5e:57:0f:64:67:14:a1:b0:b2:09:13:
        55:ee:2c:74:7e:db:e9:a0:33:71:e0:81:35:c0:07:18:8a:8e:
        51:69:16:c2:86:16:95:41:95:35:2f:90:a6:32:29:6a:38:c4:
        10:e4:04:0c:eb:3b:30:10:27:92:5d:bc:41:ca:65:4e:76:3f:
        79:44:45:a0:8b:1c:cc:de
-----BEGIN CERTIFICATE-----
MIIFnzCCA4egAwIBAgIUNxITU57d9KtZTW3AMrtpzpl9z4AwDQYJKoZIhvcNAQEL
BQAwXjELMAkGA1UEBhMCQ0ExEzARBgNVBAgMCldvbmRlcmxhbmQxEzARBgNVBAcM
CkFsaWNlIEhvbWUxEDAOBgNVBAsMB1Rlc3QgQ0ExEzARBgNVBAoMCnZhbGtleS10
Y2wwIBcNMjQwODIxMjAxMzEyWhgPMzAyMzEyMjMyMDEzMTJaMF4xCzAJBgNVBAYT
AkNBMRMwEQYDVQQIDApXb25kZXJsYW5kMRMwEQYDVQQHDApBbGljZSBIb21lMRAw
DgYDVQQLDAdUZXN0IENBMRMwEQYDVQQKDAp2YWxrZXktdGNsMIICIjANBgkqhkiG
9w0BAQEFAAOCAg8AMIICCgKCAgEAhzOu2oNwJEqREMjIjB1qBXPWy44cSsw0sIRa
PjTCSw/j6fZMNMjjwJsW31qOji0//ougyZzWG6byLXvr7dy/y10FSNxYLmsP+Uaw
lJXwh9veHBeoYQ8WhujhsnEVit24oi4Cspcva/Fv6cIpzjuLdi8cNRL7H66KFORE
212vSIfQm9Pzz4FgInOQPj7wjAu0p2m4szbb8pwAzrQqwjYvRK0Gp1TIMZVK8OlC
NSczwN0sJ/aaD0705RmDCG+WUuq6N+vP/oGVp8n8IG944h7dltuEHfDfgKIt/NP7
ZeOb3andXJf01WEKT8FYbDRqO+D5gDb8gQFUU/CEGlsugs4NdhzPhP3TBeVZQiiu
4KLZ+5oQ7v4079qg/WZ4Pz5DsO8ZxQhVjti62NefliVhDwF/LZbXGsk4M9DgFW+D
dVWyP7JfTULyTqogfT+4ZsZ5FIBjnX/u5gKFPEzOtKXm7sPw1QgShnCOY9mY5Xy1
Tr2NvFXglr8Ic6pS5ypEgycKBmjCan56GxRRNq2Lu4maC39BxcobfDc+WDBCLRnr
ksKUsWLjxYxqzq4U4RMo90Anoqhf3Dtw8Oni9dXkBQb9ZtqXCAM+2XXxnn4kcB7l
hTeCURkIVDBRLNoWrqCFWAZ/xsQGQ7FN4ssppzWTuTjQLTwC1cgx5ylWQYtrwfLZ
KBp257kCAwEAAaNTMFEwHQYDVR0OBBYEFHrNS4ZFPLBkP15EWvNG3vILK4MCMB8G
A1UdIwQYMBaAFHrNS4ZFPLBkP15EWvNG3vILK4MCMA8GA1UdEwEB/wQFMAMBAf8w
DQYJKoZIhvcNAQELBQADggIBADjDkmHjpU/szYWy/qbL4jFe1+x0OmZ27q+XCRhM
00i1xCXEn3a/QB5+PpMH1OPEs9OcQz7W6h1mOOEzYRZvmN0x5lM4nlY2gdJQEnH9
RpmaNhuFpLZFqsi04dJpifPSYQCcIudM47h4/enKhW9Q7oEZoKmegpA0SsqyYjQ+
wz515MbRbXxvwuhQa+7wdubU+GyvSensYUoEZu3v44FtXpXWtR8KFFNh3Ihh5VaN
0soRFIRTqFpZdxFJ0EuNxeU+9DLj5qPKIkAReYDC6qpHUtk31l7TJ8F80roqs0Ai
jdBU4Vy1E2ZWoniyQqYLkUv13zwB8bnifAbcQ1wClXd4ZKpAU4mmToz6aIe/tav9
kKBVTDev4XRx2p4qgiP2OKsrhESORqJ1MfPNJBm63+x5FKWt211/vd+516HXRAwv
H+u7KSbthPWjuD3MARB90XFG0PZ++CMngjtBpnn7LBAIGk5Je7DDE1jeOxQh/BB6
n/++jjZbGkwHYlcXgk9MUrfNF2cer/ABCy8QWOUaU6uAFlUMXMA7oL7+4zzCuWC4
c+SluBqpIkpT1dJ4AByc2DuIn1DC1AuLlD9eVw9kZxShsLIJE1XuLHR+2+mgM3Hg
gTXABxiKjlFpFsKGFpVBlTUvkKYyKWo4xBDkBAzrOzAQJ5JdvEHKZU52P3lERaCL
HMze
-----END CERTIFICATE-----
