Certificate:
    Data:
        Version: 1 (0x0)
        Serial Number: 1 (0x1)
        Signature Algorithm: sha256WithRSAEncryption
        Issuer: C = CA, ST = Wonderland, L = Alice Home, OU = Test CA, O = valkey-tcl
        Validity
            Not Before: Aug 21 20:13:13 2024 GMT
            Not After : Dec 23 20:13:13 3023 GMT
        Subject: C = CA, ST = Wonderland, L = Alice Home, OU = Test Client, O = valkey-tcl, CN = 127.0.0.1
        Subject Public Key Info:
            Public Key Algorithm: rsaEncryption
                Public-Key: (4096 bit)
                Modulus:
                    00:97:da:03:02:02:eb:d0:a8:cb:ea:4c:01:39:66:
                    68:51:d4:78:37:c4:cf:7e:af:06:f5:9f:eb:26:f9:
                    75:52:40:39:73:b7:98:be:9f:6e:d0:a7:2a:71:67:
                    0c:ee:13:f2:1b:df:ff:b2:08:85:b1:fd:77:0d:12:
                    a8:bb:01:b6:12:20:ca:90:17:51:c1:b5:17:35:61:
                    19:29:45:5c:29:fa:c6:99:9c:6d:57:e7:2b:0c:da:
                    ac:d7:33:38:b4:d8:78:83:b1:df:d9:84:c5:d8:02:
                    6f:2f:65:19:07:7e:4f:6b:80:c0:f6:d7:f5:f3:f0:
                    84:0b:85:1b:f2:81:9b:12:5a:9b:dd:8f:4a:03:a9:
                    88:67:d5:86:bc:68:9d:2d:56:0c:ec:8f:dd:d7:b8:
                    22:28:c2:84:23:d6:8f:1a:0c:97:91:97:3f:5b:bc:
                    08:a7:9c:3e:96:4e:4c:0b:ac:1b:0a:ae:72:62:98:
                    59:cc:f7:4a:b0:84:1a:2b:22:e1:20:ad:c4:74:36:
                    36:91:80:92:68:8b:be:dd:15:7a:d7:67:9f:fa:60:
                    fc:5f:0c:bb:77:03:69:7e:f4:aa:7c:55:6e:02:6a:
                    26:24:5d:4b:d4:00:ee:6b:13:cc:a4:8c:cb:5c:69:
                    93:03:60:d4:df:12:bc:bd:50:f6:2f:39:bb:44:f6:
                    93:39:47:d2:02:d9:b1:aa:6a:5e:eb:81:67:8f:d4:
                    2b:f5:62:cd:71:5d:25:fa:ac:d8:35:a2:c5:27:73:
                    77:36:d7:ad:7e:b3:e2:d6:11:d1:b2:f3:7c:6c:5c:
                    70:6c:8e:35:ef:51:bf:8c:a1:5e:d6:d4:f4:c8:d3:
                    82:fb:f0:73:99:8d:0a:91:ba:30:08:19:11:a5:43:
                    ed:6e:15:c2:09:27:e6:09:10:77:ac:5c:32:79:40:
                    e4:f4:d6:bc:da:56:62:30:ef:ce:25:ff:fe:35:c5:
                    d1:49:af:dd:21:01:31:e3:bb:c9:b7:48:a1:86:53:
                    e8:e2:69:d4:ef:17:e5:df:9b:a0:9a:56:1a:7b:c1:
                    fb:34:5c:2f:49:b5:ce:d6:56:d3:15:1a:76:a9:19:
                    e7:39:de:e2:bb:82:b7:72:8d:24:ab:5a:0f:69:fc:
                    1e:15:72:c0:89:bc:a3:32:33:81:cf:b1:c5:5c:59:
                    6d:13:da:3e:b2:a0:b0:ca:44:15:8b:3e:90:af:2d:
                    03:3f:7d:c7:ac:ed:02:06:06:0a:5a:07:d3:76:03:
                    7a:a2:6e:47:8f:15:ae:c3:40:f7:8b:9e:cb:25:a2:
                    2f:de:ce:31:a0:2d:2d:56:5c:d5:19:13:1b:87:6b:
                    61:8b:d7:2f:97:84:36:e5:bf:ac:31:e4:84:15:c8:
                    87:68:6d
                Exponent: 65537 (0x10001)
    Signature Algorithm: sha256WithRSAEncryption
    Signature Value:
        4b:08:22:0b:2a:21:2a:52:a3:cc:6f:dc:ed:4e:9f:29:57:2d:
        97:34:d2:da:05:b4:75:2c:d2:93:64:7e:fe:19:2f:dc:83:37:
        e0:c6:e4:21:11:90:db:81:8e:1d:ef:a7:29:55:c5:a9:91:18:
        ba:fe:9e:40:3b:cb:e7:df:59:ea:72:b2:8d:32:8c:b4:9c:6e:
        b2:3c:2b:83:82:b7:28:40:86:ac:b0:e8:18:08:01:3c:f0:4f:
        f3:f0:90:a9:20:06:f9:68:b3:63:e7:10:bb:3f:50:13:8c:d9:
        61:d5:17:8c:72:af:30:2f:6a:5f:82:cb:ce:d1:51:b4:34:e5:
        bd:1f:14:1c:5e:b3:dc:e2:8d:76:97:a1:58:88:eb:ae:1e:bc:
        a5:ae:8e:da:d5:5a:1a:b0:c2:fd:d6:67:4f:a3:3b:ab:7e:a4:
        9b:f3:3d:c9:f2:c9:a4:ba:10:63:18:75:6c:ab:ab:46:70:41:
        e4:fd:a1:e3:8f:60:f3:02:9b:a9:59:73:20:69:7e:b3:d7:11:
        da:aa:9a:55:73:a4:69:93:37:ef:c0:98:d2:8f:49:70:fc:5a:
        a4:e0:1b:6f:cf:e4:0e:ba:15:d1:76:b9:87:85:e1:2f:d4:ab:
        1d:0f:96:45:ff:63:44:83:5f:8d:a9:89:77:b4:7c:06:f4:1a:
        3d:f2:37:01:06:e8:8e:7c:a6:b8:6f:40:81:48:f5:7c:f2:7d:
        6c:0c:6c:1a:3b:e8:f1:59:ff:45:5f:fc:08:59:9f:70:19:33:
        8f:a0:aa:89:d0:5c:f1:5f:48:b5:50:d1:71:b5:c6:bd:8f:ac:
        90:5e:ff:ba:06:cb:c1:f2:01:f4:45:d5:5a:91:a8:62:5a:dc:
        61:86:cb:93:49:e1:33:11:e4:ae:ea:99:67:62:09:28:57:bc:
        e0:3e:d7:25:f2:15:98:04:3f:5d:87:ba:01:ec:80:df:3b:8e:
        da:31:32:e7:26:a1:76:ba:a0:ac:7c:5a:e9:f7:13:43:a4:0c:
        da:6f:ce:24:69:c4:76:04:df:89:00:bb:b5:77:eb:2c:ca:44:
        16:12:c1:a0:24:50:20:1c:7c:55:e4:80:11:f4:39:db:cf:13:
        92:bf:32:87:7e:3d:3f:2c:fe:3a:f8:2d:f6:83:69:24:8e:fe:
        6e:30:60:63:40:3f:1b:76:bd:8a:8e:3a:a4:19:f3:70:55:be:
        fa:25:3e:14:67:85:10:16:6c:8d:33:db:a1:ae:a8:21:46:fe:
        11:46:67:4a:ea:2d:a4:c2:fe:c9:18:ae:48:f1:49:3b:28:81:
        17:2b:d6:49:1e:e8:1b:ae:00:8b:f7:d2:c1:6e:5b:7c:b2:7e:
        c0:bd:00:c6:d6:cf:ef:4c
-----BEGIN CERTIFICATE-----
MIIFSjCCAzICAQEwDQYJKoZIhvcNAQELBQAwXjELMAkGA1UEBhMCQ0ExEzARBgNV
BAgMCldvbmRlcmxhbmQxEzARBgNVBAcMCkFsaWNlIEhvbWUxEDAOBgNVBAsMB1Rl
c3QgQ0ExEzARBgNVBAoMCnZhbGtleS10Y2wwIBcNMjQwODIxMjAxMzEzWhgPMzAy
MzEyMjMyMDEzMTNaMHYxCzAJBgNVBAYTAkNBMRMwEQYDVQQIDApXb25kZXJsYW5k
MRMwEQYDVQQHDApBbGljZSBIb21lMRQwEgYDVQQLDAtUZXN0IENsaWVudDETMBEG
A1UECgwKdmFsa2V5LXRjbDESMBAGA1UEAwwJMTI3LjAuMC4xMIICIjANBgkqhkiG
9w0BAQEFAAOCAg8AMIICCgKCAgEAl9oDAgLr0KjL6kwBOWZoUdR4N8TPfq8G9Z/r
Jvl1UkA5c7eYvp9u0KcqcWcM7hPyG9//sgiFsf13DRKouwG2EiDKkBdRwbUXNWEZ
KUVcKfrGmZxtV+crDNqs1zM4tNh4g7Hf2YTF2AJvL2UZB35Pa4DA9tf18/CEC4Ub
8oGbElqb3Y9KA6mIZ9WGvGidLVYM7I/d17giKMKEI9aPGgyXkZc/W7wIp5w+lk5M
C6wbCq5yYphZzPdKsIQaKyLhIK3EdDY2kYCSaIu+3RV612ef+mD8Xwy7dwNpfvSq
fFVuAmomJF1L1ADuaxPMpIzLXGmTA2DU3xK8vVD2Lzm7RPaTOUfSAtmxqmpe64Fn
j9Qr9WLNcV0l+qzYNaLFJ3N3NtetfrPi1hHRsvN8bFxwbI4171G/jKFe1tT0yNOC
+/BzmY0KkbowCBkRpUPtbhXCCSfmCRB3rFwyeUDk9Na82lZiMO/OJf/+NcXRSa/d
IQEx47vJt0ihhlPo4mnU7xfl35ugmlYae8H7NFwvSbXO1lbTFRp2qRnnOd7iu4K3
co0kq1oPafweFXLAibyjMjOBz7HFXFltE9o+sqCwykQViz6Qry0DP33HrO0CBgYK
WgfTdgN6om5HjxWuw0D3i57LJaIv3s4xoC0tVlzVGRMbh2thi9cvl4Q25b+sMeSE
FciHaG0CAwEAATANBgkqhkiG9w0BAQsFAAOCAgEASwgiCyohKlKjzG/c7U6fKVct
lzTS2gW0dSzSk2R+/hkv3IM34MbkIRGQ24GOHe+nKVXFqZEYuv6eQDvL599Z6nKy
jTKMtJxusjwrg4K3KECGrLDoGAgBPPBP8/CQqSAG+WizY+cQuz9QE4zZYdUXjHKv
MC9qX4LLztFRtDTlvR8UHF6z3OKNdpehWIjrrh68pa6O2tVaGrDC/dZnT6M7q36k
m/M9yfLJpLoQYxh1bKurRnBB5P2h449g8wKbqVlzIGl+s9cR2qqaVXOkaZM378CY
0o9JcPxapOAbb8/kDroV0Xa5h4XhL9SrHQ+WRf9jRINfjamJd7R8BvQaPfI3AQbo
jnymuG9AgUj1fPJ9bAxsGjvo8Vn/RV/8CFmfcBkzj6CqidBc8V9ItVDRcbXGvY+s
kF7/ugbLwfIB9EXVWpGoYlrcYYbLk0nhMxHkruqZZ2IJKFe84D7XJfIVmAQ/XYe6
AeyA3zuO2jEy5yahdrqgrHxa6fcTQ6QM2m/OJGnEdgTfiQC7tXfrLMpEFhLBoCRQ
IBx8VeSAEfQ5288Tkr8yh349Pyz+Ovgt9oNpJI7+bjBgY0A/G3a9io46pBnzcFW+
+iU+FGeFEBZsjTPboa6oIUb+EUZnSuotpML+yRiuSPFJOyiBFyvWSR7oG64Ai/fS
wW5bfLJ+wL0AxtbP70w=
-----END CERTIFICATE-----
