Certificate Request:
    Data:
        Version: 1 (0x0)
        Subject: C = CA, ST = Wonderland, L = Alice Home, OU = Test Client, O = valkey-tcl, CN = 127.0.0.1
        Subject Public Key Info:
            Public Key Algorithm: rsaEncryption
                Public-Key: (4096 bit)
                Modulus:
                    00:97:da:03:02:02:eb:d0:a8:cb:ea:4c:01:39:66:
                    68:51:d4:78:37:c4:cf:7e:af:06:f5:9f:eb:26:f9:
                    75:52:40:39:73:b7:98:be:9f:6e:d0:a7:2a:71:67:
                    0c:ee:13:f2:1b:df:ff:b2:08:85:b1:fd:77:0d:12:
                    a8:bb:01:b6:12:20:ca:90:17:51:c1:b5:17:35:61:
                    19:29:45:5c:29:fa:c6:99:9c:6d:57:e7:2b:0c:da:
                    ac:d7:33:38:b4:d8:78:83:b1:df:d9:84:c5:d8:02:
                    6f:2f:65:19:07:7e:4f:6b:80:c0:f6:d7:f5:f3:f0:
                    84:0b:85:1b:f2:81:9b:12:5a:9b:dd:8f:4a:03:a9:
                    88:67:d5:86:bc:68:9d:2d:56:0c:ec:8f:dd:d7:b8:
                    22:28:c2:84:23:d6:8f:1a:0c:97:91:97:3f:5b:bc:
                    08:a7:9c:3e:96:4e:4c:0b:ac:1b:0a:ae:72:62:98:
                    59:cc:f7:4a:b0:84:1a:2b:22:e1:20:ad:c4:74:36:
                    36:91:80:92:68:8b:be:dd:15:7a:d7:67:9f:fa:60:
                    fc:5f:0c:bb:77:03:69:7e:f4:aa:7c:55:6e:02:6a:
                    26:24:5d:4b:d4:00:ee:6b:13:cc:a4:8c:cb:5c:69:
                    93:03:60:d4:df:12:bc:bd:50:f6:2f:39:bb:44:f6:
                    93:39:47:d2:02:d9:b1:aa:6a:5e:eb:81:67:8f:d4:
                    2b:f5:62:cd:71:5d:25:fa:ac:d8:35:a2:c5:27:73:
                    77:36:d7:ad:7e:b3:e2:d6:11:d1:b2:f3:7c:6c:5c:
                    70:6c:8e:35:ef:51:bf:8c:a1:5e:d6:d4:f4:c8:d3:
                    82:fb:f0:73:99:8d:0a:91:ba:30:08:19:11:a5:43:
                    ed:6e:15:c2:09:27:e6:09:10:77:ac:5c:32:79:40:
                    e4:f4:d6:bc:da:56:62:30:ef:ce:25:ff:fe:35:c5:
                    d1:49:af:dd:21:01:31:e3:bb:c9:b7:48:a1:86:53:
                    e8:e2:69:d4:ef:17:e5:df:9b:a0:9a:56:1a:7b:c1:
                    fb:34:5c:2f:49:b5:ce:d6:56:d3:15:1a:76:a9:19:
                    e7:39:de:e2:bb:82:b7:72:8d:24:ab:5a:0f:69:fc:
                    1e:15:72:c0:89:bc:a3:32:33:81:cf:b1:c5:5c:59:
                    6d:13:da:3e:b2:a0:b0:ca:44:15:8b:3e:90:af:2d:
                    03:3f:7d:c7:ac:ed:02:06:06:0a:5a:07:d3:76:03:
                    7a:a2:6e:47:8f:15:ae:c3:40:f7:8b:9e:cb:25:a2:
                    2f:de:ce:31:a0:2d:2d:56:5c:d5:19:13:1b:87:6b:
                    61:8b:d7:2f:97:84:36:e5:bf:ac:31:e4:84:15:c8:
                    87:68:6d
                Exponent: 65537 (0x10001)
        Attributes:
            (none)
            Requested Extensions:
    Signature Algorithm: sha256WithRSAEncryption
    Signature Value:
        73:9d:15:2e:07:86:a7:da:45:62:f2:c6:ae:3d:2a:11:fb:08:
        08:a7:d9:df:c7:a2:94:be:62:52:17:37:14:c8:8d:6f:49:31:
        6f:a3:34:7e:e3:63:09:f0:a8:29:6e:e8:b7:ec:ff:fa:d3:7a:
        6b:ae:92:4d:6c:a2:7d:53:20:e8:08:37:75:12:9d:ef:13:e2:
        c0:78:b0:b0:a8:3e:55:51:3a:64:ed:bb:61:de:9d:31:0f:ff:
        e9:e0:a9:8e:45:9c:ce:74:77:24:11:23:ec:64:fb:04:32:1e:
        e0:f6:d9:6a:55:5e:0c:27:9f:c1:dd:80:c3:52:21:08:89:23:
        40:54:d6:f5:c3:b6:d9:1d:24:dc:f6:64:6f:73:d4:69:fd:50:
        79:d4:e5:ce:a1:c5:80:6d:27:27:2b:c8:9e:c7:36:ea:64:12:
        67:a7:38:bb:97:18:d0:d7:75:2b:11:c2:e5:44:cc:b4:c4:2b:
        c2:37:26:f4:36:bd:79:96:f9:4c:b9:79:5c:86:80:2f:45:7c:
        23:5e:70:c5:e6:ab:e3:cc:e6:ef:f9:02:10:9e:0c:81:0c:cc:
        08:bf:e1:4a:80:33:fd:21:7b:e3:94:da:a4:81:47:38:5b:5c:
        70:6a:38:95:19:5d:67:f5:4e:a6:e7:bb:73:68:e8:3d:d6:0b:
        71:4f:08:be:b2:15:28:9f:a9:d6:02:87:68:93:98:7b:3e:b3:
        52:91:f3:15:cc:66:af:14:98:51:50:62:2c:20:76:d3:a6:47:
        33:b5:a8:20:1b:77:c2:32:b3:2f:38:e3:54:9f:a0:b1:48:66:
        9b:6c:6d:e1:c8:9b:f4:8a:44:66:a7:3a:e0:92:ce:5f:5a:80:
        b2:1a:86:7b:13:22:1b:dd:57:17:92:c1:4a:2d:48:50:b7:8d:
        ff:3f:28:c3:64:ad:29:4e:33:67:ca:39:66:c7:d5:1f:00:4f:
        72:dc:21:c5:39:c6:45:9b:04:04:23:57:e6:5f:cd:40:52:d6:
        f4:7e:2f:e3:b7:1e:91:38:96:5d:cc:83:aa:d3:83:c4:ba:e0:
        d4:b6:81:5c:a2:28:e6:3e:9d:01:42:77:7d:7b:83:0c:12:be:
        8c:10:3f:98:3c:f8:e4:7c:73:34:13:08:d9:ed:16:6e:ae:1e:
        f6:cb:3b:a1:16:a4:ee:79:1b:fe:3c:3e:1a:5e:2d:08:d2:22:
        ca:2d:cb:f5:60:1d:2a:68:c7:da:06:8d:de:85:50:3b:b9:1c:
        6d:48:84:95:d1:e3:ea:ea:d5:b3:9d:e2:23:43:2f:5c:3d:46:
        0d:ea:a1:3a:30:d2:97:3e:95:59:96:0d:94:2f:50:52:c4:de:
        46:b1:13:dc:f1:5f:82:3d
-----BEGIN CERTIFICATE REQUEST-----
MIIEuzCCAqMCAQAwdjELMAkGA1UEBhMCQ0ExEzARBgNVBAgMCldvbmRlcmxhbmQx
EzARBgNVBAcMCkFsaWNlIEhvbWUxFDASBgNVBAsMC1Rlc3QgQ2xpZW50MRMwEQYD
VQQKDAp2YWxrZXktdGNsMRIwEAYDVQQDDAkxMjcuMC4wLjEwggIiMA0GCSqGSIb3
DQEBAQUAA4ICDwAwggIKAoICAQCX2gMCAuvQqMvqTAE5ZmhR1Hg3xM9+rwb1n+sm
+XVSQDlzt5i+n27QpypxZwzuE/Ib3/+yCIWx/XcNEqi7AbYSIMqQF1HBtRc1YRkp
RVwp+saZnG1X5ysM2qzXMzi02HiDsd/ZhMXYAm8vZRkHfk9rgMD21/Xz8IQLhRvy
gZsSWpvdj0oDqYhn1Ya8aJ0tVgzsj93XuCIowoQj1o8aDJeRlz9bvAinnD6WTkwL
rBsKrnJimFnM90qwhBorIuEgrcR0NjaRgJJoi77dFXrXZ5/6YPxfDLt3A2l+9Kp8
VW4CaiYkXUvUAO5rE8ykjMtcaZMDYNTfEry9UPYvObtE9pM5R9IC2bGqal7rgWeP
1Cv1Ys1xXSX6rNg1osUnc3c2161+s+LWEdGy83xsXHBsjjXvUb+MoV7W1PTI04L7
8HOZjQqRujAIGRGlQ+1uFcIJJ+YJEHesXDJ5QOT01rzaVmIw784l//41xdFJr90h
ATHju8m3SKGGU+jiadTvF+Xfm6CaVhp7wfs0XC9Jtc7WVtMVGnapGec53uK7grdy
jSSrWg9p/B4VcsCJvKMyM4HPscVcWW0T2j6yoLDKRBWLPpCvLQM/fces7QIGBgpa
B9N2A3qibkePFa7DQPeLnssloi/ezjGgLS1WXNUZExuHa2GL1y+XhDblv6wx5IQV
yIdobQIDAQABoAAwDQYJKoZIhvcNAQELBQADggIBAHOdFS4HhqfaRWLyxq49KhH7
CAin2d/HopS+YlIXNxTIjW9JMW+jNH7jYwnwqClu6Lfs//rTemuukk1son1TIOgI
N3USne8T4sB4sLCoPlVROmTtu2HenTEP/+ngqY5FnM50dyQRI+xk+wQyHuD22WpV
Xgwnn8HdgMNSIQiJI0BU1vXDttkdJNz2ZG9z1Gn9UHnU5c6hxYBtJycryJ7HNupk
EmenOLuXGNDXdSsRwuVEzLTEK8I3JvQ2vXmW+Uy5eVyGgC9FfCNecMXmq+PM5u/5
AhCeDIEMzAi/4UqAM/0he+OU2qSBRzhbXHBqOJUZXWf1Tqbnu3No6D3WC3FPCL6y
FSifqdYCh2iTmHs+s1KR8xXMZq8UmFFQYiwgdtOmRzO1qCAbd8Iysy8441SfoLFI
ZptsbeHIm/SKRGanOuCSzl9agLIahnsTIhvdVxeSwUotSFC3jf8/KMNkrSlOM2fK
OWbH1R8AT3LcIcU5xkWbBAQjV+ZfzUBS1vR+L+O3HpE4ll3Mg6rTg8S64NS2gVyi
KOY+nQFCd317gwwSvowQP5g8+OR8czQTCNntFm6uHvbLO6EWpO55G/48PhpeLQjS
Isoty/VgHSpox9oGjd6FUDu5HG1IhJXR4+rq1bOd4iNDL1w9Rg3qoTow0pc+lVmW
DZQvUFLE3kaxE9zxX4I9
-----END CERTIFICATE REQUEST-----
