Certificate:
    Data:
        Version: 3 (0x2)
        Serial Number: 1 (0x1)
        Signature Algorithm: sha256WithRSAEncryption
        Issuer: C = CA, ST = Wonderland, L = Alice Home, OU = Test CA, O = valkey-tcl
        Validity
            Not Before: Aug 21 20:13:12 2024 GMT
            Not After : Dec 23 20:13:12 3023 GMT
        Subject: C = CA, ST = Wonderland, L = Alice Home, OU = Test Server, O = valkey-tcl, CN = 127.0.0.1
        Subject Public Key Info:
            Public Key Algorithm: rsaEncryption
                Public-Key: (4096 bit)
                Modulus:
                    00:c7:3f:39:8a:cb:f7:42:e7:75:89:48:14:87:dd:
                    39:ba:3f:a3:4e:2f:47:96:c6:6a:5f:20:de:07:7c:
                    f9:56:7c:13:4a:b1:00:21:8b:48:a1:ae:23:3e:3f:
                    08:39:95:f0:e3:74:9c:c3:02:3c:db:e7:63:b0:af:
                    8f:f7:62:a6:e4:d9:b5:5f:5b:2b:d2:62:48:6e:a5:
                    7c:4e:62:2d:2e:f4:ab:1a:e9:0f:1d:e8:7f:32:34:
                    e6:92:5d:a3:ed:38:a8:df:a8:78:19:f0:66:1a:a0:
                    3c:b4:ce:26:64:fa:f3:e9:cd:1c:e6:21:17:c9:d0:
                    18:88:52:36:06:10:86:a1:7b:fa:60:42:b0:88:af:
                    4d:22:d8:cd:ab:e6:13:a9:74:25:cc:cc:9d:bb:05:
                    4e:85:ee:23:47:e6:55:3a:1c:3e:78:d4:75:18:aa:
                    7b:8e:b7:c8:37:88:1b:fd:24:b2:b3:95:04:3b:a7:
                    60:f5:2b:76:ea:ad:be:97:86:f5:4d:ea:44:b7:6a:
                    f7:49:d2:42:22:bd:4d:1a:ca:20:74:0d:66:59:c4:
                    3d:a8:16:81:cc:19:31:68:23:e8:f9:1e:28:ba:cc:
                    61:99:23:80:e8:3d:5f:c8:fe:4d:09:c9:b9:a0:ba:
                    fb:f6:51:84:cd:aa:f4:1f:79:84:6b:a4:7e:04:1d:
                    84:2d:da:f5:ac:61:3f:71:b9:37:3e:9b:52:a2:37:
                    00:9f:d2:de:aa:9f:40:b1:6e:3d:b2:d1:76:36:86:
                    52:e2:7d:6d:5e:0d:ac:f4:9d:75:94:34:75:b4:07:
                    9e:8a:ac:84:f8:45:2a:b7:b1:28:41:e0:e8:1b:86:
                    93:12:8b:1b:d8:e0:04:ac:1d:bf:e2:07:1d:3e:9f:
                    81:12:d9:f9:83:c9:a7:a0:d4:34:62:fd:1e:4c:bd:
                    12:fc:12:c6:02:55:64:f4:c6:42:02:ac:80:4e:38:
                    b3:77:10:dd:d9:3f:29:cc:1a:6a:a8:5d:a2:a9:a3:
                    a6:e4:91:79:8a:a2:fd:94:f7:80:d0:ea:53:b1:9e:
                    3b:e1:8e:14:79:ce:74:1c:a3:b1:40:0a:95:fa:7f:
                    22:f5:fb:b3:3e:4c:4e:52:84:78:6e:b0:7d:34:66:
                    3b:88:4f:1a:aa:4a:6d:9d:1b:f8:28:f1:c0:d5:7c:
                    ac:97:d6:d7:8b:50:a3:07:aa:f8:61:ad:93:8e:e2:
                    83:95:fb:a9:bb:c6:78:c3:f5:12:6a:13:1c:2c:ff:
                    b7:9d:2e:69:7e:52:04:88:19:dc:22:03:d3:13:39:
                    f2:3f:77:a5:c0:09:71:66:a4:81:1d:cf:42:19:19:
                    10:00:a6:f3:26:db:1c:4b:ce:36:51:61:e4:54:28:
                    de:9f:9d
                Exponent: 65537 (0x10001)
        X509v3 extensions:
            X509v3 Subject Alternative Name: 
                DNS:localhost, IP Address:127.0.0.1
            X509v3 Subject Key Identifier: 
                DF:73:67:C8:E0:EB:98:FA:CB:47:E4:38:10:14:85:DC:F2:A2:18:91
            X509v3 Authority Key Identifier: 
                7A:CD:4B:86:45:3C:B0:64:3F:5E:44:5A:F3:46:DE:F2:0B:2B:83:02
    Signature Algorithm: sha256WithRSAEncryption
    Signature Value:
        59:d4:32:90:e6:c3:0d:5c:c5:56:ec:0e:b8:4c:07:3c:92:f1:
        68:8b:21:a5:88:b7:b4:74:78:43:b0:89:20:49:67:03:bf:75:
        af:fe:e6:2d:75:03:1e:c1:e2:4d:65:6a:3d:04:6f:e5:a9:ba:
        44:59:99:fc:46:39:ce:0c:47:c7:38:4a:25:5f:c8:62:25:00:
        01:73:34:d9:67:25:a2:96:e9:e4:82:2f:22:31:5b:0d:d4:f1:
        6d:e9:76:49:47:17:11:2d:c8:95:12:8a:23:f5:2a:08:4e:ea:
        0d:32:7d:73:d1:3a:28:34:2a:c0:f2:f1:cd:8c:f8:c1:54:ef:
        36:d9:a8:a6:a4:54:88:22:80:c3:1c:60:36:69:b5:47:1f:df:
        85:51:d1:e2:fb:f8:98:5d:82:74:b6:df:69:50:80:b4:90:32:
        10:5c:f6:74:5b:bc:3a:6d:f5:c1:81:65:d1:df:39:e5:65:dd:
        1a:b8:6a:ec:d2:90:d2:4c:4c:0a:69:f4:8a:eb:24:45:b9:e4:
        d2:8c:64:93:7c:9d:24:c6:83:f0:11:9d:20:a5:de:bc:77:02:
        55:a1:a8:df:06:58:67:31:76:7c:63:85:ca:6a:62:26:70:fc:
        fe:7e:02:f4:4a:47:c6:9b:60:7b:f5:14:6c:87:11:51:7d:73:
        61:c4:d1:fb:2a:3d:76:07:5f:e7:78:4e:51:a2:53:69:dd:dd:
        38:9d:48:1e:a7:07:8f:3e:61:24:e1:c0:c1:8a:25:9e:de:11:
        a8:71:c9:39:e7:78:20:f7:1e:da:8e:e1:a4:62:f2:79:2d:29:
        6f:b0:3d:a8:59:fc:a3:61:04:59:4c:71:7f:16:bb:4e:24:51:
        d9:f1:e5:15:79:10:b9:db:93:ac:55:cd:04:98:42:54:a0:b7:
        01:1b:26:e7:f6:6b:76:4d:87:ec:70:22:77:79:c7:f0:13:62:
        df:2a:4c:de:ee:c0:9e:ba:6a:24:40:2e:03:0f:fc:e6:43:a0:
        c7:78:29:f3:3e:b8:46:75:3e:8b:78:4b:e8:ef:38:27:6d:18:
        b3:60:af:5a:f3:f9:0f:c5:00:e8:c1:8e:82:98:90:e6:38:79:
        79:25:3b:a2:40:e5:c3:c1:84:a9:0b:e1:73:80:47:e0:29:34:
        88:76:16:58:fd:fd:28:fb:35:c1:b0:ad:e9:5c:ed:1e:7f:91:
        df:78:f2:d4:b8:33:ad:74:ba:6d:11:70:b5:35:d1:0c:ad:73:
        70:a1:dd:97:08:9e:91:ed:9b:c9:33:20:a4:6d:4a:87:c1:7d:
        fe:97:fb:c0:03:1f:4e:9d:63:16:69:fb:71:95:c3:96:f5:e4:
        3d:54:92:fb:c7:a7:e1:af
-----BEGIN CERTIFICATE-----
MIIFrzCCA5egAwIBAgIBATANBgkqhkiG9w0BAQsFADBeMQswCQYDVQQGEwJDQTET
MBEGA1UECAwKV29uZGVybGFuZDETMBEGA1UEBwwKQWxpY2UgSG9tZTEQMA4GA1UE
CwwHVGVzdCBDQTETMBEGA1UECgwKdmFsa2V5LXRjbDAgFw0yNDA4MjEyMDEzMTJa
GA8zMDIzMTIyMzIwMTMxMlowdjELMAkGA1UEBhMCQ0ExEzARBgNVBAgMCldvbmRl
cmxhbmQxEzARBgNVBAcMCkFsaWNlIEhvbWUxFDASBgNVBAsMC1Rlc3QgU2VydmVy
MRMwEQYDVQQKDAp2YWxrZXktdGNsMRIwEAYDVQQDDAkxMjcuMC4wLjEwggIiMA0G
CSqGSIb3DQEBAQUAA4ICDwAwggIKAoICAQDHPzmKy/dC53WJSBSH3Tm6P6NOL0eW
xmpfIN4HfPlWfBNKsQAhi0ihriM+Pwg5lfDjdJzDAjzb52Owr4/3Yqbk2bVfWyvS
YkhupXxOYi0u9Ksa6Q8d6H8yNOaSXaPtOKjfqHgZ8GYaoDy0ziZk+vPpzRzmIRfJ
0BiIUjYGEIahe/pgQrCIr00i2M2r5hOpdCXMzJ27BU6F7iNH5lU6HD541HUYqnuO
t8g3iBv9JLKzlQQ7p2D1K3bqrb6XhvVN6kS3avdJ0kIivU0ayiB0DWZZxD2oFoHM
GTFoI+j5Hii6zGGZI4DoPV/I/k0Jybmguvv2UYTNqvQfeYRrpH4EHYQt2vWsYT9x
uTc+m1KiNwCf0t6qn0Cxbj2y0XY2hlLifW1eDaz0nXWUNHW0B56KrIT4RSq3sShB
4OgbhpMSixvY4ASsHb/iBx0+n4ES2fmDyaeg1DRi/R5MvRL8EsYCVWT0xkICrIBO
OLN3EN3ZPynMGmqoXaKpo6bkkXmKov2U94DQ6lOxnjvhjhR5znQco7FACpX6fyL1
+7M+TE5ShHhusH00ZjuITxqqSm2dG/go8cDVfKyX1teLUKMHqvhhrZOO4oOV+6m7
xnjD9RJqExws/7edLml+UgSIGdwiA9MTOfI/d6XACXFmpIEdz0IZGRAApvMm2xxL
zjZRYeRUKN6fnQIDAQABo14wXDAaBgNVHREEEzARgglsb2NhbGhvc3SHBH8AAAEw
HQYDVR0OBBYEFN9zZ8jg65j6y0fkOBAUhdzyohiRMB8GA1UdIwQYMBaAFHrNS4ZF
PLBkP15EWvNG3vILK4MCMA0GCSqGSIb3DQEBCwUAA4ICAQBZ1DKQ5sMNXMVW7A64
TAc8kvFoiyGliLe0dHhDsIkgSWcDv3Wv/uYtdQMeweJNZWo9BG/lqbpEWZn8RjnO
DEfHOEolX8hiJQABczTZZyWilunkgi8iMVsN1PFt6XZJRxcRLciVEooj9SoITuoN
Mn1z0TooNCrA8vHNjPjBVO822aimpFSIIoDDHGA2abVHH9+FUdHi+/iYXYJ0tt9p
UIC0kDIQXPZ0W7w6bfXBgWXR3znlZd0auGrs0pDSTEwKafSK6yRFueTSjGSTfJ0k
xoPwEZ0gpd68dwJVoajfBlhnMXZ8Y4XKamImcPz+fgL0SkfGm2B79RRshxFRfXNh
xNH7Kj12B1/neE5RolNp3d04nUgepwePPmEk4cDBiiWe3hGocck553gg9x7ajuGk
YvJ5LSlvsD2oWfyjYQRZTHF/FrtOJFHZ8eUVeRC525OsVc0EmEJUoLcBGybn9mt2
TYfscCJ3ecfwE2LfKkze7sCeumokQC4DD/zmQ6DHeCnzPrhGdT6LeEvo7zgnbRiz
YK9a8/kPxQDowY6CmJDmOHl5JTuiQOXDwYSpC+FzgEfgKTSIdhZY/f0o+zXBsK3p
XO0ef5HfePLUuDOtdLptEXC1NdEMrXNwod2XCJ6R7ZvJMyCkbUqHwX3+l/vAAx9O
nWMWaftxlcOW9eQ9VJL7x6fhrw==
-----END CERTIFICATE-----
