Certificate Request:
    Data:
        Version: 1 (0x0)
        Subject: C = CA, ST = Wonderland, L = Alice Home, OU = Test Server, O = valkey-tcl, CN = 127.0.0.1
        Subject Public Key Info:
            Public Key Algorithm: rsaEncryption
                Public-Key: (4096 bit)
                Modulus:
                    00:c7:3f:39:8a:cb:f7:42:e7:75:89:48:14:87:dd:
                    39:ba:3f:a3:4e:2f:47:96:c6:6a:5f:20:de:07:7c:
                    f9:56:7c:13:4a:b1:00:21:8b:48:a1:ae:23:3e:3f:
                    08:39:95:f0:e3:74:9c:c3:02:3c:db:e7:63:b0:af:
                    8f:f7:62:a6:e4:d9:b5:5f:5b:2b:d2:62:48:6e:a5:
                    7c:4e:62:2d:2e:f4:ab:1a:e9:0f:1d:e8:7f:32:34:
                    e6:92:5d:a3:ed:38:a8:df:a8:78:19:f0:66:1a:a0:
                    3c:b4:ce:26:64:fa:f3:e9:cd:1c:e6:21:17:c9:d0:
                    18:88:52:36:06:10:86:a1:7b:fa:60:42:b0:88:af:
                    4d:22:d8:cd:ab:e6:13:a9:74:25:cc:cc:9d:bb:05:
                    4e:85:ee:23:47:e6:55:3a:1c:3e:78:d4:75:18:aa:
                    7b:8e:b7:c8:37:88:1b:fd:24:b2:b3:95:04:3b:a7:
                    60:f5:2b:76:ea:ad:be:97:86:f5:4d:ea:44:b7:6a:
                    f7:49:d2:42:22:bd:4d:1a:ca:20:74:0d:66:59:c4:
                    3d:a8:16:81:cc:19:31:68:23:e8:f9:1e:28:ba:cc:
                    61:99:23:80:e8:3d:5f:c8:fe:4d:09:c9:b9:a0:ba:
                    fb:f6:51:84:cd:aa:f4:1f:79:84:6b:a4:7e:04:1d:
                    84:2d:da:f5:ac:61:3f:71:b9:37:3e:9b:52:a2:37:
                    00:9f:d2:de:aa:9f:40:b1:6e:3d:b2:d1:76:36:86:
                    52:e2:7d:6d:5e:0d:ac:f4:9d:75:94:34:75:b4:07:
                    9e:8a:ac:84:f8:45:2a:b7:b1:28:41:e0:e8:1b:86:
                    93:12:8b:1b:d8:e0:04:ac:1d:bf:e2:07:1d:3e:9f:
                    81:12:d9:f9:83:c9:a7:a0:d4:34:62:fd:1e:4c:bd:
                    12:fc:12:c6:02:55:64:f4:c6:42:02:ac:80:4e:38:
                    b3:77:10:dd:d9:3f:29:cc:1a:6a:a8:5d:a2:a9:a3:
                    a6:e4:91:79:8a:a2:fd:94:f7:80:d0:ea:53:b1:9e:
                    3b:e1:8e:14:79:ce:74:1c:a3:b1:40:0a:95:fa:7f:
                    22:f5:fb:b3:3e:4c:4e:52:84:78:6e:b0:7d:34:66:
                    3b:88:4f:1a:aa:4a:6d:9d:1b:f8:28:f1:c0:d5:7c:
                    ac:97:d6:d7:8b:50:a3:07:aa:f8:61:ad:93:8e:e2:
                    83:95:fb:a9:bb:c6:78:c3:f5:12:6a:13:1c:2c:ff:
                    b7:9d:2e:69:7e:52:04:88:19:dc:22:03:d3:13:39:
                    f2:3f:77:a5:c0:09:71:66:a4:81:1d:cf:42:19:19:
                    10:00:a6:f3:26:db:1c:4b:ce:36:51:61:e4:54:28:
                    de:9f:9d
                Exponent: 65537 (0x10001)
        Attributes:
            (none)
            Requested Extensions:
    Signature Algorithm: sha256WithRSAEncryption
    Signature Value:
        46:be:09:bf:82:3c:fc:39:1d:b4:72:2d:08:b0:8d:11:e8:ea:
        cf:38:19:fc:fa:80:3c:ea:65:e9:b6:cf:da:6e:77:69:b8:d7:
        c6:f2:11:06:f9:52:25:90:73:ff:2b:5d:13:44:f6:4f:d1:43:
        5a:74:f2:6a:70:72:1e:63:ed:72:bf:8b:f3:cf:89:44:1c:a8:
        b9:85:81:f6:af:fd:b7:57:ea:27:df:3b:ac:0c:85:7d:0a:9a:
        ec:9c:c6:88:53:0d:d5:a0:7b:41:1a:2b:43:d3:39:75:38:d7:
        94:89:de:14:00:96:ec:99:47:77:42:f6:c5:53:f1:4f:26:19:
        0b:c4:f0:65:11:fa:be:96:dc:21:5e:c4:af:f1:34:be:0e:93:
        4f:0d:2b:e2:20:f0:35:17:60:85:95:98:5d:99:2f:da:f7:44:
        33:16:70:2e:ec:74:17:39:42:5e:71:2d:31:50:66:23:a5:5e:
        1d:d9:92:96:9f:b0:5f:eb:1e:64:4f:5a:1a:03:99:4f:e4:8c:
        a1:2c:bf:db:94:a6:68:d8:fa:cf:dc:01:b7:90:0a:62:6e:59:
        b8:65:b3:46:06:34:ac:ad:95:da:d5:4a:33:46:83:f7:19:7a:
        94:82:39:bf:63:2e:08:ae:3b:fb:82:af:e8:c4:0c:4a:08:31:
        e8:b6:4c:12:24:9a:6a:aa:b6:a3:38:4d:e8:b9:e6:27:6d:a9:
        c5:76:43:5b:f8:d0:7a:2d:d0:11:44:29:67:29:7a:d2:99:19:
        ad:a7:cc:73:30:64:ec:74:f3:fc:21:61:d3:eb:68:72:c0:9d:
        93:4b:b1:29:9b:13:bf:04:a3:d1:c2:1d:30:ed:70:9b:85:0a:
        df:d8:21:69:cd:b8:57:54:6f:33:33:59:1a:79:9a:c0:40:b9:
        f0:82:07:8d:8e:a2:68:16:52:ea:27:4b:43:c9:f8:a2:5f:e6:
        74:6e:94:f4:cf:e6:e0:dd:71:0c:81:de:3a:38:03:22:be:27:
        64:8e:cf:d0:7b:68:76:45:fa:a2:2d:03:b3:05:5b:32:62:f7:
        cf:2e:5e:89:49:51:f6:e6:9c:5c:07:b6:1c:c9:69:ce:1c:0c:
        be:f3:a6:5a:88:4d:af:c4:44:44:8a:5c:28:cd:0b:51:21:cb:
        29:2b:85:81:99:3f:69:4c:d6:d0:7e:0e:49:a8:53:35:a8:a0:
        97:c7:d4:6c:39:4a:91:e5:90:01:28:b2:eb:3c:d4:8a:57:b4:
        5a:b3:28:6b:fa:30:96:42:f3:1d:b6:76:1c:45:a4:a6:47:44:
        27:69:97:81:f2:72:c3:bb:8d:f2:b7:5c:f1:79:d7:ff:6a:bb:
        84:f9:6a:f9:09:2d:30:e9
-----BEGIN CERTIFICATE REQUEST-----
MIIEuzCCAqMCAQAwdjELMAkGA1UEBhMCQ0ExEzARBgNVBAgMCldvbmRlcmxhbmQx
EzARBgNVBAcMCkFsaWNlIEhvbWUxFDASBgNVBAsMC1Rlc3QgU2VydmVyMRMwEQYD
VQQKDAp2YWxrZXktdGNsMRIwEAYDVQQDDAkxMjcuMC4wLjEwggIiMA0GCSqGSIb3
DQEBAQUAA4ICDwAwggIKAoICAQDHPzmKy/dC53WJSBSH3Tm6P6NOL0eWxmpfIN4H
fPlWfBNKsQAhi0ihriM+Pwg5lfDjdJzDAjzb52Owr4/3Yqbk2bVfWyvSYkhupXxO
Yi0u9Ksa6Q8d6H8yNOaSXaPtOKjfqHgZ8GYaoDy0ziZk+vPpzRzmIRfJ0BiIUjYG
EIahe/pgQrCIr00i2M2r5hOpdCXMzJ27BU6F7iNH5lU6HD541HUYqnuOt8g3iBv9
JLKzlQQ7p2D1K3bqrb6XhvVN6kS3avdJ0kIivU0ayiB0DWZZxD2oFoHMGTFoI+j5
Hii6zGGZI4DoPV/I/k0Jybmguvv2UYTNqvQfeYRrpH4EHYQt2vWsYT9xuTc+m1Ki
NwCf0t6qn0Cxbj2y0XY2hlLifW1eDaz0nXWUNHW0B56KrIT4RSq3sShB4OgbhpMS
ixvY4ASsHb/iBx0+n4ES2fmDyaeg1DRi/R5MvRL8EsYCVWT0xkICrIBOOLN3EN3Z
PynMGmqoXaKpo6bkkXmKov2U94DQ6lOxnjvhjhR5znQco7FACpX6fyL1+7M+TE5S
hHhusH00ZjuITxqqSm2dG/go8cDVfKyX1teLUKMHqvhhrZOO4oOV+6m7xnjD9RJq
Exws/7edLml+UgSIGdwiA9MTOfI/d6XACXFmpIEdz0IZGRAApvMm2xxLzjZRYeRU
KN6fnQIDAQABoAAwDQYJKoZIhvcNAQELBQADggIBAEa+Cb+CPPw5HbRyLQiwjRHo
6s84Gfz6gDzqZem2z9pud2m418byEQb5UiWQc/8rXRNE9k/RQ1p08mpwch5j7XK/
i/PPiUQcqLmFgfav/bdX6iffO6wMhX0KmuycxohTDdWge0EaK0PTOXU415SJ3hQA
luyZR3dC9sVT8U8mGQvE8GUR+r6W3CFexK/xNL4Ok08NK+Ig8DUXYIWVmF2ZL9r3
RDMWcC7sdBc5Ql5xLTFQZiOlXh3ZkpafsF/rHmRPWhoDmU/kjKEsv9uUpmjY+s/c
AbeQCmJuWbhls0YGNKytldrVSjNGg/cZepSCOb9jLgiuO/uCr+jEDEoIMei2TBIk
mmqqtqM4Tei55idtqcV2Q1v40Hot0BFEKWcpetKZGa2nzHMwZOx08/whYdPraHLA
nZNLsSmbE78Eo9HCHTDtcJuFCt/YIWnNuFdUbzMzWRp5msBAufCCB42OomgWUuon
S0PJ+KJf5nRulPTP5uDdcQyB3jo4AyK+J2SOz9B7aHZF+qItA7MFWzJi988uXolJ
UfbmnFwHthzJac4cDL7zplqITa/ERESKXCjNC1EhyykrhYGZP2lM1tB+DkmoUzWo
oJfH1Gw5SpHlkAEosus81IpXtFqzKGv6MJZC8x22dhxFpKZHRCdpl4HycsO7jfK3
XPF51/9qu4T5avkJLTDp
-----END CERTIFICATE REQUEST-----
